; Function Attrs: mustprogress uwtable
define hidden noundef zeroext i1 @_ZNK7Imf_3_414TiledInputFile11isValidTileEiiii(ptr noundef nonnull readonly align 8 captures(none) dereferenceable(32) %0, i32 noundef %1, i32 noundef %2, i32 noundef %3, i32 noundef %4) local_unnamed_addr #3 align 2 {
  %6 = alloca i32, align 4
  %7 = alloca i32, align 4
  call void @llvm.lifetime.start.p0(i64 4, ptr nonnull %6) #28
  store i32 0, ptr %6, align 4, !tbaa !84
  call void @llvm.lifetime.start.p0(i64 4, ptr nonnull %7) #28
  store i32 0, ptr %7, align 4, !tbaa !84
  %8 = load ptr, ptr %0, align 8, !tbaa !77
  %9 = load ptr, ptr %8, align 8, !tbaa !81
  %10 = getelementptr inbounds nuw i8, ptr %0, i64 16
  %11 = load ptr, ptr %10, align 8, !tbaa !6
  %12 = getelementptr inbounds nuw i8, ptr %11, i64 8
  %13 = load i32, ptr %12, align 8, !tbaa !58
  %14 = call i32 @exr_get_tile_counts(ptr noundef %9, i32 noundef %13, i32 noundef %3, i32 noundef %4, ptr noundef nonnull %6, ptr noundef nonnull %7)
  %15 = icmp eq i32 %14, 0
  br i1 %15, label %16, label %25

16:                                               ; preds = %5
  %17 = load i32, ptr %6, align 4, !tbaa !84
  %18 = icmp slt i32 %1, %17
  %19 = icmp sgt i32 %1, -1
  %or.cond = and i1 %19, %18
  br i1 %or.cond, label %20, label %25

20:                                               ; preds = %16
  %21 = load i32, ptr %7, align 4, !tbaa !84
  %22 = icmp slt i32 %2, %21
  %23 = icmp sgt i32 %2, -1
  %24 = and i1 %23, %22
  br label %25

25:                                               ; preds = %5, %16, %20
  %.0 = phi i1 [ false, %16 ], [ %24, %20 ], [ false, %5 ]
  call void @llvm.lifetime.end.p0(i64 4, ptr nonnull %7) #28
  call void @llvm.lifetime.end.p0(i64 4, ptr nonnull %6) #28
  ret i1 %.0
}